; Function Attrs: nounwind uwtable
define ptr @l_Lean_instMonadCacheExceptTOfMonad___rarg___lambda__2(ptr noundef %0, ptr noundef %1, ptr noundef %2) #0 {
  %4 = getelementptr inbounds nuw i8, ptr %0, i64 8
  %5 = load ptr, ptr %4, align 8, !tbaa !4
  %6 = ptrtoint ptr %5 to i64
  %7 = and i64 %6, 1
  %.not = icmp eq i64 %7, 0
  br i1 %.not, label %8, label %lean_inc.exit20

8:                                                ; preds = %3
  %.val.i = load i32, ptr %5, align 4, !tbaa !8
  %9 = icmp sgt i32 %.val.i, 0
  br i1 %9, label %10, label %12, !prof !11

10:                                               ; preds = %8
  %11 = add nuw i32 %.val.i, 1
  store i32 %11, ptr %5, align 4, !tbaa !8
  br label %lean_inc.exit20

12:                                               ; preds = %8
  %.not.i30 = icmp eq i32 %.val.i, 0
  br i1 %.not.i30, label %lean_inc.exit20, label %13

13:                                               ; preds = %12
  tail call void @lean_inc_ref_cold(ptr noundef nonnull %5) #4
  br label %lean_inc.exit20

lean_inc.exit20:                                  ; preds = %13, %12, %10, %3
  %14 = ptrtoint ptr %0 to i64
  %15 = and i64 %14, 1
  %.not40 = icmp eq i64 %15, 0
  br i1 %.not40, label %16, label %lean_dec.exit23

16:                                               ; preds = %lean_inc.exit20
  %17 = load i32, ptr %0, align 4, !tbaa !8
  %18 = icmp sgt i32 %17, 1
  br i1 %18, label %19, label %21, !prof !11

19:                                               ; preds = %16
  %20 = add nsw i32 %17, -1
  store i32 %20, ptr %0, align 4, !tbaa !8
  br label %lean_dec.exit23

21:                                               ; preds = %16
  %.not.i = icmp eq i32 %17, 0
  br i1 %.not.i, label %lean_dec.exit23, label %22

22:                                               ; preds = %21
  tail call void @lean_dec_ref_cold(ptr noundef nonnull %0) #4
  br label %lean_dec.exit23

lean_dec.exit23:                                  ; preds = %22, %21, %19, %lean_inc.exit20
  %23 = tail call ptr @lean_apply_1(ptr noundef %5, ptr noundef %2) #4
  %24 = getelementptr inbounds nuw i8, ptr %1, i64 8
  %25 = load ptr, ptr %24, align 8, !tbaa !4
  %26 = ptrtoint ptr %25 to i64
  %27 = and i64 %26, 1
  %.not41 = icmp eq i64 %27, 0
  br i1 %.not41, label %28, label %lean_inc.exit19

28:                                               ; preds = %lean_dec.exit23
  %.val.i31 = load i32, ptr %25, align 4, !tbaa !8
  %29 = icmp sgt i32 %.val.i31, 0
  br i1 %29, label %30, label %32, !prof !11

30:                                               ; preds = %28
  %31 = add nuw i32 %.val.i31, 1
  store i32 %31, ptr %25, align 4, !tbaa !8
  br label %lean_inc.exit19

32:                                               ; preds = %28
  %.not.i32 = icmp eq i32 %.val.i31, 0
  br i1 %.not.i32, label %lean_inc.exit19, label %33

33:                                               ; preds = %32
  tail call void @lean_inc_ref_cold(ptr noundef nonnull %25) #4
  br label %lean_inc.exit19

lean_inc.exit19:                                  ; preds = %33, %32, %30, %lean_dec.exit23
  %34 = ptrtoint ptr %1 to i64
  %35 = and i64 %34, 1
  %.not42 = icmp eq i64 %35, 0
  br i1 %.not42, label %36, label %lean_dec.exit22

36:                                               ; preds = %lean_inc.exit19
  %37 = load i32, ptr %1, align 4, !tbaa !8
  %38 = icmp sgt i32 %37, 1
  br i1 %38, label %39, label %41, !prof !11

39:                                               ; preds = %36
  %40 = add nsw i32 %37, -1
  store i32 %40, ptr %1, align 4, !tbaa !8
  br label %lean_dec.exit22

41:                                               ; preds = %36
  %.not.i24 = icmp eq i32 %37, 0
  br i1 %.not.i24, label %lean_dec.exit22, label %42

42:                                               ; preds = %41
  tail call void @lean_dec_ref_cold(ptr noundef nonnull %1) #4
  br label %lean_dec.exit22

lean_dec.exit22:                                  ; preds = %42, %41, %39, %lean_inc.exit19
  %43 = getelementptr inbounds nuw i8, ptr %25, i64 8
  %44 = load ptr, ptr %43, align 8, !tbaa !4
  %45 = ptrtoint ptr %44 to i64
  %46 = and i64 %45, 1
  %.not43 = icmp eq i64 %46, 0
  br i1 %.not43, label %47, label %lean_inc.exit18

47:                                               ; preds = %lean_dec.exit22
  %.val.i34 = load i32, ptr %44, align 4, !tbaa !8
  %48 = icmp sgt i32 %.val.i34, 0
  br i1 %48, label %49, label %51, !prof !11

49:                                               ; preds = %47
  %50 = add nuw i32 %.val.i34, 1
  store i32 %50, ptr %44, align 4, !tbaa !8
  br label %lean_inc.exit18

51:                                               ; preds = %47
  %.not.i35 = icmp eq i32 %.val.i34, 0
  br i1 %.not.i35, label %lean_inc.exit18, label %52

52:                                               ; preds = %51
  tail call void @lean_inc_ref_cold(ptr noundef nonnull %44) #4
  br label %lean_inc.exit18

lean_inc.exit18:                                  ; preds = %52, %51, %49, %lean_dec.exit22
  br i1 %.not41, label %53, label %lean_dec.exit21

53:                                               ; preds = %lean_inc.exit18
  %54 = load i32, ptr %25, align 4, !tbaa !8
  %55 = icmp sgt i32 %54, 1
  br i1 %55, label %56, label %58, !prof !11

56:                                               ; preds = %53
  %57 = add nsw i32 %54, -1
  store i32 %57, ptr %25, align 4, !tbaa !8
  br label %lean_dec.exit21

58:                                               ; preds = %53
  %.not.i26 = icmp eq i32 %54, 0
  br i1 %.not.i26, label %lean_dec.exit21, label %59

59:                                               ; preds = %58
  tail call void @lean_dec_ref_cold(ptr noundef nonnull %25) #4
  br label %lean_dec.exit21

lean_dec.exit21:                                  ; preds = %59, %58, %56, %lean_inc.exit18
  %60 = getelementptr inbounds nuw i8, ptr %44, i64 8
  %61 = load ptr, ptr %60, align 8, !tbaa !4
  %62 = ptrtoint ptr %61 to i64
  %63 = and i64 %62, 1
  %.not44 = icmp eq i64 %63, 0
  br i1 %.not44, label %64, label %lean_inc.exit

64:                                               ; preds = %lean_dec.exit21
  %.val.i37 = load i32, ptr %61, align 4, !tbaa !8
  %65 = icmp sgt i32 %.val.i37, 0
  br i1 %65, label %66, label %68, !prof !11

66:                                               ; preds = %64
  %67 = add nuw i32 %.val.i37, 1
  store i32 %67, ptr %61, align 4, !tbaa !8
  br label %lean_inc.exit

68:                                               ; preds = %64
  %.not.i38 = icmp eq i32 %.val.i37, 0
  br i1 %.not.i38, label %lean_inc.exit, label %69

69:                                               ; preds = %68
  tail call void @lean_inc_ref_cold(ptr noundef nonnull %61) #4
  br label %lean_inc.exit

lean_inc.exit:                                    ; preds = %69, %68, %66, %lean_dec.exit21
  br i1 %.not43, label %70, label %lean_dec.exit

70:                                               ; preds = %lean_inc.exit
  %71 = load i32, ptr %44, align 4, !tbaa !8
  %72 = icmp sgt i32 %71, 1
  br i1 %72, label %73, label %75, !prof !11

73:                                               ; preds = %70
  %74 = add nsw i32 %71, -1
  store i32 %74, ptr %44, align 4, !tbaa !8
  br label %lean_dec.exit

75:                                               ; preds = %70
  %.not.i28 = icmp eq i32 %71, 0
  br i1 %.not.i28, label %lean_dec.exit, label %76

76:                                               ; preds = %75
  tail call void @lean_dec_ref_cold(ptr noundef nonnull %44) #4
  br label %lean_dec.exit

lean_dec.exit:                                    ; preds = %76, %75, %73, %lean_inc.exit
  %77 = load ptr, ptr @l_Lean_instMonadCacheExceptTOfMonad___rarg___lambda__2___closed__1, align 8, !tbaa !4
  %78 = tail call ptr @lean_apply_4(ptr noundef %61, ptr noundef nonnull inttoptr (i64 1 to ptr), ptr noundef nonnull inttoptr (i64 1 to ptr), ptr noundef %77, ptr noundef %23) #4
  ret ptr %78
}